; Function Attrs: nounwind uwtable
define i32 @gvRenderContext(ptr noundef %0, ptr noundef %1, ptr noundef %2, ptr noundef %3) local_unnamed_addr #0 {
  %5 = tail call zeroext i1 @gvjobs_output_langname(ptr noundef %0, ptr noundef %2) #8
  %6 = getelementptr inbounds nuw i8, ptr %0, i64 296
  %7 = load ptr, ptr %6, align 8
  br i1 %5, label %11, label %8

8:                                                ; preds = %4
  %9 = tail call ptr @gvplugin_list(ptr noundef nonnull %0, i32 noundef 3, ptr noundef %2) #8
  %10 = tail call i32 (i32, ptr, ...) @agerr(i32 noundef 1, ptr noundef nonnull @.str.6, ptr noundef %2, ptr noundef %9) #8
  br label %31

11:                                               ; preds = %4
  %12 = getelementptr inbounds nuw i8, ptr %7, i64 96
  %13 = load ptr, ptr %12, align 8
  %14 = tail call i32 @gvrender_select(ptr noundef %7, ptr noundef %13) #8
  %15 = getelementptr inbounds nuw i8, ptr %7, i64 104
  store i32 %14, ptr %15, align 8
  %16 = tail call ptr @agbindrec(ptr noundef %1, ptr noundef nonnull @.str.7, i32 noundef 0, i32 noundef 1) #8
  %.not = icmp eq ptr %16, null
  br i1 %.not, label %22, label %17

17:                                               ; preds = %11
  %18 = getelementptr inbounds nuw i8, ptr %1, i64 16
  %19 = load ptr, ptr %18, align 8
  %20 = getelementptr inbounds nuw i8, ptr %19, i64 16
  %21 = load ptr, ptr %20, align 8
  %.not22 = icmp eq ptr %21, null
  br i1 %.not22, label %22, label %27

22:                                               ; preds = %17, %11
  %23 = getelementptr inbounds nuw i8, ptr %7, i64 272
  %24 = load i32, ptr %23, align 8
  %25 = and i32 %24, 67108864
  %.not23 = icmp eq i32 %25, 0
  br i1 %.not23, label %26, label %27

26:                                               ; preds = %22
  tail call void (ptr, ...) @agerrorf(ptr noundef nonnull @.str.8) #8
  br label %31

27:                                               ; preds = %22, %17
  %28 = getelementptr inbounds nuw i8, ptr %7, i64 248
  store ptr %3, ptr %28, align 8
  %29 = getelementptr inbounds nuw i8, ptr %7, i64 256
  store i8 1, ptr %29, align 8
  %30 = tail call i32 @gvRenderJobs(ptr noundef nonnull %0, ptr noundef %1) #8
  tail call void @gvrender_end_job(ptr noundef nonnull %7) #8
  tail call void @gvdevice_finalize(ptr noundef nonnull %7) #8
  tail call void @gvjobs_delete(ptr noundef nonnull %0) #8
  br label %31

31:                                               ; preds = %27, %26, %8
  %.0 = phi i32 [ %30, %27 ], [ -1, %26 ], [ -1, %8 ]
  ret i32 %.0
}